c__builtin__
set
p0
((lp1
(S'Never Forget You'
p2
S'Zara Larsson & MNEK'
p3
tp4
a(S'Me, Myself & I'
p5
S'G-Eazy x Bebe Rexha'
p6
tp7
a(S'Pop Style'
p8
S'Drake Featuring The Throne'
p9
tp10
a(S"If It Ain't Love"
p11
S'Jason Derulo'
p12
tp13
a(S"Don't Let Me Down"
p14
S'The Chainsmokers Featuring Daya'
p15
tp16
a(S'Confession'
p17
S'Florida Georgia Line'
p18
tp19
a(S'Kiss It Better'
p20
S'Rihanna'
p21
tp22
a(S'No'
p23
S'Meghan Trainor'
p24
tp25
a(S'T-Shirt'
p26
S'Thomas Rhett'
p27
tp28
a(S'Piece By Piece'
p29
S'Kelly Clarkson'
p30
tp31
a(S'Stressed Out'
p32
S'twenty one pilots'
p33
tp34
a(S'Exchange'
p35
S'Bryson Tiller'
p36
tp37
a(S'Controlla'
p38
S'Drake'
p39
tp40
a(S'Just Like Fire'
p41
S'P!nk'
p42
tp43
a(S'My House'
p44
S'Flo Rida'
p45
tp46
a(S'Uber Everywhere'
p47
S'MadeinTYO'
p48
tp49
a(S'Hold Up'
p50
S'Beyonce'
p51
tp52
a(S'My Boo'
p53
S"Ghost Town DJ's"
p54
tp55
a(S'Body'
p56
S'Dreezy Featuring Jeremih'
p57
tp58
a(S'Faithful'
p59
S'Drake Featuring Pimp C & dvsn'
p60
tp61
a(S'Cake By The Ocean'
p62
S'DNCE'
p63
tp64
a(S'Might Not'
p65
S'Belly Featuring The Weeknd'
p66
tp67
a(S'Weston Road Flows'
p68
S'Drake'
p69
tp70
a(S'Redemption'
p71
S'Drake'
p72
tp73
a(S'Childs Play'
p74
S'Drake'
p75
tp76
a(S"Don't"
p77
S'Bryson Tiller'
p78
tp79
a(S'Never Be Like You'
p80
S'Flume Featuring Kai'
p81
tp82
a(S'Feel No Ways'
p83
S'Drake'
p84
tp85
a(S'Love Yourself'
p86
S'Justin Bieber'
p87
tp88
a(S'9'
p89
S'Drake'
p90
tp91
a(S'Still Here'
p92
S'Drake'
p93
tp94
a(S'Love Drought'
p95
S'Beyonce'
p96
tp97
a(S'6 Inch'
p98
S'Beyonce Featuring The Weeknd'
p99
tp100
a(S'Keep The Family Close'
p101
S'Drake'
p102
tp103
a(S'One Dance'
p104
S'Drake Featuring WizKid & Kyla'
p105
tp106
a(S"Huntin', Fishin' & Lovin' Every Day"
p107
S'Luke Bryan'
p108
tp109
a(S'Close'
p110
S'Nick Jonas Featuring Tove Lo'
p111
tp112
a(S'Law'
p113
S'Yo Gotti Featuring E-40'
p114
tp115
a(S"Don't Mind"
p116
S'Kent Jones'
p117
tp118
a(S'The Sound Of Silence'
p119
S'Disturbed'
p120
tp121
a(S'Wicked'
p122
S'Future'
p123
tp124
a(S'Somewhere On A Beach'
p125
S'Dierks Bentley'
p126
tp127
a(S'I Hate U I Love U'
p128
S"gnash Featuring Olivia O'Brien"
p129
tp130
a(S'Cheap Thrills'
p131
S'Sia Featuring Sean Paul'
p132
tp133
a(S'Stitches'
p134
S'Shawn Mendes'
p135
tp136
a(S'Mind Reader'
p137
S'Dustin Lynch'
p138
tp139
a(S'Youth'
p140
S'Troye Sivan'
p141
tp142
a(S'Sorry'
p143
S'Justin Bieber'
p144
tp145
a(S'Ride'
p146
S'twenty one pilots'
p147
tp148
a(S'Middle'
p149
S'DJ Snake Featuring Bipolar Sunshine'
p150
tp151
a(S'Pray You Catch Me'
p152
S'Beyonce'
p153
tp154
a(S'Roses'
p155
S'The Chainsmokers Featuring Rozes'
p156
tp157
a(S'I Like The Sound Of That'
p158
S'Rascal Flatts'
p159
tp160
a(S'One Call Away'
p161
S'Charlie Puth'
p162
tp163
a(S"Don't Hurt Yourself"
p164
S'Beyonce Featuring Jack White'
p165
tp166
a(S'Pillowtalk'
p167
S'Zayn'
p168
tp169
a(S'Famous'
p170
S'Kanye West'
p171
tp172
a(S'Oui'
p173
S'Jeremih'
p174
tp175
a(S'Views'
p176
S'Drake'
p177
tp178
a(S'Needed Me'
p179
S'Rihanna'
p180
tp181
a(S'Think Of You'
p182
S'Chris Young Duet With Cassadee Pope'
p183
tp184
a(S'Panda'
p185
S'Desiigner'
p186
tp187
a(S'Head Over Boots'
p188
S'Jon Pardi'
p189
tp190
a(S'Sorry'
p191
S'Beyonce'
p192
tp193
a(S'Low Life'
p194
S'Future Featuring The Weeknd'
p195
tp196
a(S'With You'
p197
S'Drake Featuring PARTYNEXTDOOR'
p198
tp199
a(S'7 Years'
p200
S'Lukas Graham'
p201
tp202
a(S'Summer Sixteen'
p203
S'Drake'
p204
tp205
a(S'This Is What You Came For'
p206
S'Calvin Harris Featuring Rihanna'
p207
tp208
a(S'2 Phones'
p209
S'Kevin Gates'
p210
tp211
a(S'Cut It'
p212
S'O.T. Genasis Featuring Young Dolph'
p213
tp214
a(S'All The Way Up'
p215
S'Fat Joe & Remy Ma Featuring French Montana'
p216
tp217
a(S'Daddy Lessons'
p218
S'Beyonce'
p219
tp220
a(S'My Church'
p221
S'Maren Morris'
p222
tp223
a(S'Fire & Desire'
p224
S'Drake'
p225
tp226
a(S'I Took A Pill In Ibiza'
p227
S'Mike Posner'
p228
tp229
a(S'Work From Home'
p230
S'Fifth Harmony Featuring Ty Dolla $ign'
p231
tp232
a(S'Dangerous Woman'
p233
S'Ariana Grande'
p234
tp235
a(S'Lost Boy'
p236
S'Ruth B'
p237
tp238
a(S'Grammys'
p239
S'Drake Featuring Future'
p240
tp241
a(S'Humble And Kind'
p242
S'Tim McGraw'
p243
tp244
a(S'Work'
p245
S'Rihanna Featuring Drake'
p246
tp247
a(S'U With Me?'
p248
S'Drake'
p249
tp250
a(S'Light It Up'
p251
S'Major Lazer Featuring Nyla & Fuse ODG'
p252
tp253
a(S'All Night'
p254
S'Beyonce'
p255
tp256
a(S'Hype'
p257
S'Drake'
p258
tp259
a(S'Too Good'
p260
S'Drake Featuring Rihanna'
p261
tp262
a(S'Wild Things'
p263
S'Alessia Cara'
p264
tp265
a(S'H.O.L.Y.'
p266
S'Florida Georgia Line'
p267
tp268
a(S'Sandcastles'
p269
S'Beyonce'
p270
tp271
a(S'Formation'
p272
S'Beyonce'
p273
tp274
a(S'Snapback'
p275
S'Old Dominion'
p276
tp277
a(S'Freedom'
p278
S'Beyonce Featuring Kendrick Lamar'
p279
tp280
a(S'Father Stretch My Hands Pt. 1'
p281
S'Kanye West'
p282
tp283
a(S'Let It Go'
p284
S'James Bay'
p285
tp286
a(S'Team'
p287
S'Iggy Azalea'
p288
tp289
a(S'Really Really'
p290
S'Kevin Gates'
p291
tp292
a(S'Promise'
p293
S'Kid Ink Featuring Fetty Wap'
p294
tp295
a(S'True Colors'
p296
S'Zedd & Kesha'
p297
tp298
a(S'Came Here To Forget'
p299
S'Blake Shelton'
p300
tp301
atp302
Rp303
.