(lp0
(S'Hit The Quan'
p1
S'iLoveMemphis'
p2
tp3
a(S'El Perdon (Forgiveness)'
p4
S'Nicky Jam & Enrique Iglesias'
p5
tp6
a(S'Never Forget You'
p7
S'Zara Larsson & MNEK'
p8
tp9
a(S'I Got The Boy'
p10
S'Jana Kramer'
p11
tp12
a(S'Love Myself'
p13
S'Hailee Steinfeld'
p14
tp15
a(S'Me, Myself & I'
p16
S'G-Eazy x Bebe Rexha'
p17
tp18
a(S'Noise'
p19
S'Kenny Chesney'
p20
tp21
a(S"Don't Let Me Down"
p22
S'The Chainsmokers Featuring Daya'
p23
tp24
a(S'No Sense'
p25
S'Justin Bieber Featuring Travi$ Scott'
p26
tp27
a(S'Down In The DM'
p28
S'Yo Gotti Featuring Nicki Minaj'
p29
tp30
a(S"I'll Show You"
p31
S'Justin Bieber'
p32
tp33
a(S'Jugg'
p34
S'Fetty Wap Featuring Monty'
p35
tp36
a(S'Every Breath You Take'
p37
S'Hannah Huston'
p38
tp39
a(S'T-Shirt'
p40
S'Thomas Rhett'
p41
tp42
a(S'Play No Games'
p43
S'Big Sean Featuring Chris Brown & Ty Dolla $ign'
p44
tp45
a(S'Back To Sleep'
p46
S'Chris Brown'
p47
tp48
a(S'Little More (Royalty)'
p49
S'Chris Brown'
p50
tp51
a(S'7 Years'
p52
S'Lukas Graham'
p53
tp54
a(S'Trap Queen'
p55
S'Fetty Wap'
p56
tp57
a(S'We Are'
p58
S'Justin Bieber Featuring Nas'
p59
tp60
a(S'Exchange'
p61
S'Bryson Tiller'
p62
tp63
a(S'White Iverson'
p64
S'Post Malone'
p65
tp66
a(S'Zero'
p67
S'Chris Brown'
p68
tp69
a(S'Best Friend'
p70
S'Young Thug'
p71
tp72
a(S'No Problem'
p73
S'Chance The Rapper Featuring Lil Wayne & 2 Chainz'
p74
tp75
a(S'Trust'
p76
S'Justin Bieber'
p77
tp78
a(S'Make Me Like You'
p79
S'Gwen Stefani'
p80
tp81
a(S'Hold Up'
p82
S'Beyonce'
p83
tp84
a(S'Pop Style'
p85
S'Drake Featuring The Throne'
p86
tp87
a(S'Levels'
p88
S'Nick Jonas'
p89
tp90
a(S'Hit The Quan'
p91
S'iHeartMemphis'
p92
tp93
a(S'Faithful'
p94
S'Drake Featuring Pimp C & dvsn'
p95
tp96
a(S'About You'
p97
S'Trey Songz'
p98
tp99
a(S'Try Everything'
p100
S'Shakira'
p101
tp102
a(S"Bet You Can't Do It Like Me"
p103
S'DLOW'
p104
tp105
a(S'Saved'
p106
S'Ty Dolla $ign Featuring E-40'
p107
tp108
a(S'John Cougar, John Deere, John 3:16'
p109
S'Keith Urban'
p110
tp111
a(S'Mr. Misunderstood'
p112
S'Eric Church'
p113
tp114
a(S'Might Be'
p115
S'Luke Nasty'
p116
tp117
a(S'Love Yourself'
p118
S'Justin Bieber'
p119
tp120
a(S'No Pressure'
p121
S'Justin Bieber Featuring Big Sean'
p122
tp123
a(S"Rockin' Around The Christmas Tree"
p124
S'Brenda Lee'
p125
tp126
a(S'Love Drought'
p127
S'Beyonce'
p128
tp129
a(S'Daddy'
p130
S'PSY Featuring CL'
p131
tp132
a(S'Too Good'
p133
S'Drake Featuring Rihanna'
p134
tp135
a(S'Fast Car'
p136
S'Jonas Blue Featuring Dakota'
p137
tp138
a(S'Snapback'
p139
S'Old Dominion'
p140
tp141
a(S"I'm Sorry"
p142
S'Adam Wakefield'
p143
tp144
a(S'Strip It Down'
p145
S'Luke Bryan'
p146
tp147
a(S'New Romantics'
p148
S'Taylor Swift'
p149
tp150
a(S"Emperor's New Clothes"
p151
S'Panic! At The Disco'
p152
tp153
a(S'Jam'
p154
S'Kevin Gates Featuring Trey Songz, Ty Dolla $ign &  Jamie Foxx'
p155
tp156
a(S'The Sound Of Silence'
p157
S'Disturbed'
p158
tp159
a(S'Somewhere On A Beach'
p160
S'Dierks Bentley'
p161
tp162
a(S'30 For 30 Freestyle'
p163
S'Drake'
p164
tp165
a(S'I Hate U I Love U'
p166
S"gnash Featuring Olivia O'Brien"
p167
tp168
a(S'Youth'
p169
S'Troye Sivan'
p170
tp171
a(S'Hotline Bling'
p172
S'Drake'
p173
tp174
a(S'Ride'
p175
S'twenty one pilots'
p176
tp177
a(S'Lean & Dabb'
p178
S'iLoveMemphis'
p179
tp180
a(S'Middle'
p181
S'DJ Snake Featuring Bipolar Sunshine'
p182
tp183
a(S'Pray You Catch Me'
p184
S'Beyonce'
p185
tp186
a(S'Locked Away'
p187
S'R. City Featuring Adam Levine'
p188
tp189
a(S'A.M.'
p190
S'One Direction'
p191
tp192
a(S'Powerful'
p193
S'Major Lazer Featuring Ellie Goulding & Tarrus Riley'
p194
tp195
a(S'Pillowtalk'
p196
S'Zayn'
p197
tp198
a(S'History'
p199
S'One Direction'
p200
tp201
a(S'Again'
p202
S'Fetty Wap'
p203
tp204
a(S'Used To Love You'
p205
S'Gwen Stefani'
p206
tp207
a(S'All I Ask'
p208
S'Adele'
p209
tp210
a(S'Rich $ex'
p211
S'Future'
p212
tp213
a(S'Head Over Boots'
p214
S'Jon Pardi'
p215
tp216
a(S'Little Red Corvette'
p217
S'Prince'
p218
tp219
a(S'Down In The DM'
p220
S'Yo Gotti'
p221
tp222
a(S'You Should Be Here'
p223
S'Cole Swindell'
p224
tp225
a(S'Great Is Thy Faithfulness'
p226
S'Jordan Smith'
p227
tp228
a(S'FML'
p229
S'Kanye West'
p230
tp231
a(S'Break On Me.'
p232
S'Keith Urban'
p233
tp234
a(S'THat Part'
p235
S'ScHoolboy Q Featuring Kanye West'
p236
tp237
a(S'Girls Just Want To Have Fun'
p238
S'Madi Davis'
p239
tp240
a(S'Ophelia'
p241
S'The Lumineers'
p242
tp243
a(S'Gonna Know We Were Here'
p244
S'Jason Aldean'
p245
tp246
a(S'Space Oddity'
p247
S'David Bowie'
p248
tp249
a(S'Cut It'
p250
S'O.T. Genasis Featuring Young Dolph'
p251
tp252
a(S'Fire & Desire'
p253
S'Drake'
p254
tp255
a(S'Into You'
p256
S'Ariana Grande'
p257
tp258
a(S'Water Under The Bridge'
p259
S'Adele'
p260
tp261
a(S'Climb Every Mountain'
p262
S'Jordan Smith'
p263
tp264
a(S'Walking On A Dream'
p265
S'Empire Of The Sun'
p266
tp267
a(S'Light It Up'
p268
S'Major Lazer Featuring Nyla & Fuse ODG'
p269
tp270
a(S'Sugar'
p271
S'Maroon 5'
p272
tp273
a(S'With You'
p274
S'Drake Featuring PARTYNEXTDOOR'
p275
tp276
a(S'Grammys'
p277
S'Drake Featuring Future'
p278
tp279
a(S'Good To Be Alive (Hallelujah)'
p280
S'Andy Grammer'
p281
tp282
a(S'Humble And Kind'
p283
S'Tim McGraw'
p284
tp285
a(S'The Fix'
p286
S'Nelly Featuring Jeremih'
p287
tp288
a(S'Where Are U Now'
p289
S'Skrillex & Diplo With Justin Bieber'
p290
tp291
a(S'Confession'
p292
S'Florida Georgia Line'
p293
tp294
a(S'R.I.C.O.'
p295
S'Meek Mill Featuring Drake'
p296
tp297
a(S"Runnin' (Lose It All)"
p298
S'Naughty Boy Featuring Beyonce & Arrow Benjamin'
p299
tp300
a(S'When We Were Young'
p301
S'Adele'
p302
tp303
a(S'Say It'
p304
S'Tory Lanez'
p305
tp306
a(S'Sandcastles'
p307
S'Beyonce'
p308
tp309
a(S'Hands To Myself'
p310
S'Selena Gomez'
p311
tp312
a(S'Moolah'
p313
S'Young Greatness'
p314
tp315
a(S'Hello Friday'
p316
S'Flo Rida Featuring Jason Derulo'
p317
tp318
a(S'Cheap Thrills'
p319
S'Sia Featuring Sean Paul'
p320
tp321
a(S"I'd Just Love To Lay You Down"
p322
S'Barrett Baber'
p323
tp324
a(S'I Would Die 4 U'
p325
S'Prince And The Revolution'
p326
tp327
a(S'Used To Love You Sober'
p328
S'Kane Brown'
p329
tp330
a(S'Gold'
p331
S'Kiiara'
p332
tp333
a(S'I Love This Life'
p334
S'LoCash'
p335
tp336
a(S'Promise'
p337
S'Kid Ink Featuring Fetty Wap'
p338
tp339
a(S'All Night'
p340
S'Beyonce'
p341
tp342
a(S'Infinity'
p343
S'One Direction'
p344
tp345
a(S"Ain't Your Mama"
p346
S'Jennifer Lopez'
p347
tp348
a(S'Came Here To Forget'
p349
S'Blake Shelton'
p350
tp351
a(S"Let's Go Crazy"
p352
S'Prince And The Revolution'
p353
tp354
a(S'Untitled 07 l 2014 - 2016'
p355
S'Kendrick Lamar'
p356
tp357
a(S'30 for 30 Freestyle'
p358
S'Drake'
p359
tp360
a(S'Drifting'
p361
S'G-Eazy Featuring Chris Brown & Tory Lanez'
p362
tp363
a(S"We Don't Talk Anymore"
p364
S'Charlie Puth Featuring Selena Gomez'
p365
tp366
a(S'Kiss It Better'
p367
S'Rihanna'
p368
tp369
a(S'No'
p370
S'Meghan Trainor'
p371
tp372
a(S'Stressed Out'
p373
S'twenty one pilots'
p374
tp375
a(S'Purpose'
p376
S'Justin Bieber'
p377
tp378
a(S'Lose My Mind'
p379
S'Brett Eldredge'
p380
tp381
a(S'Worth It'
p382
S'Fifth Harmony Featuring Kid Ink'
p383
tp384
a(S'Tennessee Whiskey'
p385
S'Chris Stapleton'
p386
tp387
a(S'Something In The Way You Move'
p388
S'Ellie Goulding'
p389
tp390
a(S'Wherever I Go'
p391
S'OneRepublic'
p392
tp393
a(S'Go Ahead And Break My Heart'
p394
S'Blake Shelton Featuring Gwen Stefani'
p395
tp396
a(S'God Only Knows'
p397
S'Jordan Smith & Adam Levine'
p398
tp399
a(S'Post To Be'
p400
S'Omarion Featuring Chris Brown & Jhene Aiko'
p401
tp402
a(S'Redemption'
p403
S'Drake'
p404
tp405
a(S'Hasta El Amanecer'
p406
S'Nicky Jam'
p407
tp408
a(S"I'm Comin' Over"
p409
S'Chris Young'
p410
tp411
a(S'Firestone'
p412
S'Kygo Featuring Conrad'
p413
tp414
a(S'Children'
p415
S'Justin Bieber'
p416
tp417
a(S'Feel No Ways'
p418
S'Drake'
p419
tp420
a(S"Honey, I'm Good."
p421
S'Andy Grammer'
p422
tp423
a(S'Stay A Little Longer'
p424
S'Brothers Osborne'
p425
tp426
a(S'Classic Man'
p427
S'Jidenna Featuring Roman GianArthur'
p428
tp429
a(S'Formation'
p430
S'Beyonce'
p431
tp432
a(S'Get Ugly'
p433
S'Jason Derulo'
p434
tp435
a(S'Keep The Family Close'
p436
S'Drake'
p437
tp438
a(S'Death Of A Bachelor'
p439
S'Panic! At The Disco'
p440
tp441
a(S"Huntin', Fishin' & Lovin' Every Day"
p442
S'Luke Bryan'
p443
tp444
a(S'Close'
p445
S'Nick Jonas Featuring Tove Lo'
p446
tp447
a(S'Law'
p448
S'Yo Gotti Featuring E-40'
p449
tp450
a(S'If I Could Fly'
p451
S'One Direction'
p452
tp453
a(S'Roses'
p454
S'The Chainsmokers Featuring ROZES'
p455
tp456
a(S'Drag Me Down'
p457
S'One Direction'
p458
tp459
a(S'Buy Me A Boat'
p460
S'Chris Janson'
p461
tp462
a(S'Something New'
p463
S'Zendaya Featuring Chris Brown'
p464
tp465
a(S'Jimmy Choo'
p466
S'Fetty Wap'
p467
tp468
a(S"Don't Mind"
p469
S'Kent Jones'
p470
tp471
a(S'Break Up With Him'
p472
S'Old Dominion'
p473
tp474
a(S'Fly S**t Only'
p475
S'Future'
p476
tp477
a(S'Waves'
p478
S'Kanye West'
p479
tp480
a(S'Sorry'
p481
S'Justin Bieber'
p482
tp483
a(S'How Deep Is Your Love'
p484
S'Calvin Harris & Disciples'
p485
tp486
a(S'Love On The Brain'
p487
S'Rihanna'
p488
tp489
a(S"Writing's On The Wall"
p490
S'Sam Smith'
p491
tp492
a(S'Untitled 02 l 06.23.2014.'
p493
S'Kendrick Lamar'
p494
tp495
a(S'RGF Island'
p496
S'Fetty Wap'
p497
tp498
a(S'Hide Away'
p499
S'Daya'
p500
tp501
a(S'One Call Away'
p502
S'Charlie Puth'
p503
tp504
a(S'Nothing But Trouble (Instagram Models)'
p505
S'Lil Wayne & Charlie Puth'
p506
tp507
a(S'Home'
p508
S'One Direction'
p509
tp510
a(S'WTF (Where They From)'
p511
S'Missy Elliott Featuring Pharrell Williams'
p512
tp513
a(S'Stand By You'
p514
S'Rachel Platten'
p515
tp516
a(S'Live From The Gutter'
p517
S'Drake & Future'
p518
tp519
a(S'Famous'
p520
S'Kanye West'
p521
tp522
a(S'No Role Modelz'
p523
S'J. Cole'
p524
tp525
a(S'Burning House'
p526
S'Cam'
p527
tp528
a(S'Lights Come On'
p529
S'Jason Aldean'
p530
tp531
a(S'1999'
p532
S'Prince'
p533
tp534
a(S'Out Of The Woods'
p535
S'Taylor Swift'
p536
tp537
a(S'Sorry'
p538
S'Beyonce'
p539
tp540
a(S'On My Mind'
p541
S'Ellie Goulding'
p542
tp543
a(S'Shut Up And Dance'
p544
S'WALK THE MOON'
p545
tp546
a(S'Til It Happens To You'
p547
S'Lady Gaga'
p548
tp549
a(S'Cheerleader'
p550
S'OMI'
p551
tp552
a(S'Never Enough'
p553
S'One Direction'
p554
tp555
a(S'Back To Back'
p556
S'Drake'
p557
tp558
a(S'Summer Sixteen'
p559
S'Drake'
p560
tp561
a(S'Purple Rain'
p562
S'Prince And The Revolution'
p563
tp564
a(S'Watch Out'
p565
S'2 Chainz'
p566
tp567
a(S'2 Phones'
p568
S'Kevin Gates'
p569
tp570
a(S'Little Bit Of You'
p571
S'Chase Bryant'
p572
tp573
a(S'With Them'
p574
S'Young Thug'
p575
tp576
a(S'Daddy Lessons'
p577
S'Beyonce'
p578
tp579
a(S'Love Me'
p580
S'The 1975'
p581
tp582
a(S'Liquor'
p583
S'Chris Brown'
p584
tp585
a(S'Thriller'
p586
S'Michael Jackson'
p587
tp588
a(S'Real Friends'
p589
S'Kanye West'
p590
tp591
a(S'All I Want For Christmas Is You'
p592
S'Mariah Carey'
p593
tp594
a(S'Record Year'
p595
S'Eric Church'
p596
tp597
a(S'Dessert'
p598
S'Dawin'
p599
tp600
a(S'Break Up In A Small Town'
p601
S'Sam Hunt'
p602
tp603
a(S'Down That Road'
p604
S'Alisan Porter'
p605
tp606
a(S'Dangerous Woman'
p607
S'Ariana Grande'
p608
tp609
a(S'Ghost Town'
p610
S'Adam Lambert'
p611
tp612
a(S'Gonna'
p613
S'Blake Shelton'
p614
tp615
a(S'Watch Me'
p616
S'Silento'
p617
tp618
a(S'Been You'
p619
S'Justin Bieber'
p620
tp621
a(S'Wasted Time'
p622
S'Keith Urban'
p623
tp624
a(S'Crash And Burn'
p625
S'Thomas Rhett'
p626
tp627
a(S'Renegades'
p628
S'X Ambassadors'
p629
tp630
a(S'Same Old Love'
p631
S'Selena Gomez'
p632
tp633
a(S'Look At My Dab'
p634
S'Migos'
p635
tp636
a(S'In The Night'
p637
S'The Weeknd'
p638
tp639
a(S'Hype'
p640
S'Drake'
p641
tp642
a(S'Nobody To Blame'
p643
S'Chris Stapleton'
p644
tp645
a(S'Wild Things'
p646
S'Alessia Cara'
p647
tp648
a(S'Loving You Easy'
p649
S'Zac Brown Band'
p650
tp651
a(S'Black Magic'
p652
S'Little Mix'
p653
tp654
a(S"That Don't Sound Like You"
p655
S'Lee Brice'
p656
tp657
a(S'Irresistible'
p658
S'Fall Out Boy'
p659
tp660
a(S'Might Be'
p661
S'DJ Luke Nasty'
p662
tp663
a(S'Sorry'
p664
S'Rick Ross Featuring Chris Brown'
p665
tp666
a(S'Freedom'
p667
S'Beyonce Featuring Kendrick Lamar'
p668
tp669
a(S'Let It Go'
p670
S'James Bay'
p671
tp672
a(S'What Do You Mean?'
p673
S'Justin Bieber'
p674
tp675
a(S'Really Really'
p676
S'Kevin Gates'
p677
tp678
a(S'Digits'
p679
S'Young Thug'
p680
tp681
a(S'When Doves Cry'
p682
S'Prince'
p683
tp684
a(S'Plastic Bag'
p685
S'Drake & Future'
p686
tp687
a(S'We Went'
p688
S'Randy Houser'
p689
tp690
a(S'Prisoner'
p691
S'The Weeknd Featuring Lana Del Rey'
p692
tp693
a(S'Like I Would'
p694
S'Zayn'
p695
tp696
a(S'Blase'
p697
S'Ty Dolla $ign Featuring Future & Rae Sremmurd'
p698
tp699
a(S'Earned It (Fifty Shades Of Grey)'
p700
S'The Weeknd'
p701
tp702
a(S'Light It Up'
p703
S'Major Lazer Featuring Nyla'
p704
tp705
a(S'Controlla'
p706
S'Drake'
p707
tp708
a(S'Go Flex'
p709
S'Post Malone'
p710
tp711
a(S'Church Bells'
p712
S'Carrie Underwood'
p713
tp714
a(S'Uber Everywhere'
p715
S'MadeinTYO'
p716
tp717
a(S'Change Locations'
p718
S'Drake & Future'
p719
tp720
a(S'100'
p721
S'The Game Featuring Drake'
p722
tp723
a(S'My Boo'
p724
S"Ghost Town DJ's"
p725
tp726
a(S'Jingle Bell Rock'
p727
S'Bobby Helms'
p728
tp729
a(S'Body'
p730
S'Dreezy Featuring Jeremih'
p731
tp732
a(S'Bang My Head'
p733
S'David Guetta Featuring Sia & Fetty Wap'
p734
tp735
a(S'Gotta Lotta'
p736
S'2 Chainz Featuring Lil Wayne'
p737
tp738
a(S'Weston Road Flows'
p739
S'Drake'
p740
tp741
a(S'Ginza'
p742
S'J Balvin'
p743
tp744
a(S'Childs Play'
p745
S'Drake'
p746
tp747
a(S"Don't"
p748
S'Bryson Tiller'
p749
tp750
a(S'Blackstar'
p751
S'David Bowie'
p752
tp753
a(S'My Church'
p754
S'Maren Morris'
p755
tp756
a(S"She's Kinda Hot"
p757
S'5 Seconds Of Summer'
p758
tp759
a(S'Be Alright'
p760
S'Ariana Grande'
p761
tp762
a(S'Still Here'
p763
S'Drake'
p764
tp765
a(S'From The Ground Up'
p766
S'Dan + Shay'
p767
tp768
a(S'Backroad Song'
p769
S'Granger Smith'
p770
tp771
a(S'All Eyes On You'
p772
S'Meek Mill Featuring Chris Brown & Nicki Minaj'
p773
tp774
a(S'Pt. 2'
p775
S'Kanye West'
p776
tp777
a(S'Downtown'
p778
S'Macklemore & Ryan Lewis Featuring Eric Nally, Melle Mel, Kool Moe Dee & Grandmaster Caz'
p779
tp780
a(S'Lean On'
p781
S'Major Lazer & DJ Snake Featuring M0'
p782
tp783
a(S'Somebody To Love'
p784
S'Jordan Smith'
p785
tp786
a(S'Right Hand'
p787
S'Drake'
p788
tp789
a(S'Hold Each Other'
p790
S'A Great Big World Featuring FUTURISTIC'
p791
tp792
a(S'Whisper'
p793
S'Chase Rice'
p794
tp795
a(S'Wicked'
p796
S'Future'
p797
tp798
a(S'Cool For The Summer'
p799
S'Demi Lovato'
p800
tp801
a(S'Blessings'
p802
S'Chance The Rapper'
p803
tp804
a(S'The Feeling'
p805
S'Justin Bieber Featuring Halsey'
p806
tp807
a(S'Hallelujah'
p808
S'Jordan Smith'
p809
tp810
a(S'I Took A Pill In Ibiza'
p811
S'Mike Posner'
p812
tp813
a(S'Alive'
p814
S'Sia'
p815
tp816
a(S"Already Callin' You Mine"
p817
S'Parmalee'
p818
tp819
a(S"Messin' Around"
p820
S'Pitbull Featuring Enrique Iglesias'
p821
tp822
a(S'Bottom Of The Bottle'
p823
S'Curren$Y Featuring August Alsina & Lil Wayne'
p824
tp825
a(S'Random'
p826
S'G-Eazy'
p827
tp828
a(S'Bake Sale'
p829
S'Wiz Khalifa Featuring Travi$ Scott'
p830
tp831
a(S'Temporary Fix'
p832
S'One Direction'
p833
tp834
a(S'Halo'
p835
S'Jordan Smith'
p836
tp837
a(S'Let Me See Ya Girl'
p838
S'Cole Swindell'
p839
tp840
a(S'Panda'
p841
S'Desiigner'
p842
tp843
a(S'Uptown Funk!'
p844
S'Mark Ronson Featuring Bruno Mars'
p845
tp846
a(S'Smoke Break'
p847
S'Carrie Underwood'
p848
tp849
a(S'See You Again'
p850
S'Wiz Khalifa Featuring Charlie Puth'
p851
tp852
a(S'Come Get Her'
p853
S'Rae Sremmurd'
p854
tp855
a(S'Save It For A Rainy Day'
p856
S'Kenny Chesney'
p857
tp858
a(S'Beautiful Drug'
p859
S'Zac Brown Band'
p860
tp861
a(S'Jersey'
p862
S'Future'
p863
tp864
a(S'Antidote'
p865
S'Travi$ Scott'
p866
tp867
a(S'Remedy'
p868
S'Adele'
p869
tp870
a(S'Wake Up'
p871
S'Fetty Wap'
p872
tp873
a(S'Burning House'
p874
S'Emily Ann Roberts'
p875
tp876
a(S'Jumpman'
p877
S'Drake & Future'
p878
tp879
a(S'American Country Love Song'
p880
S'Jake Owen'
p881
tp882
a(S'Come And See Me'
p883
S'PARTYNEXTDOOR Featuring Drake'
p884
tp885
a(S'Under Pressure'
p886
S'Queen & David Bowie'
p887
tp888
a(S'The Fighter'
p889
S'Keith Urban Featuring Carrie Underwood'
p890
tp891
a(S'Hell Of A Night'
p892
S'Dustin Lynch'
p893
tp894
a(S'Forward'
p895
S'Beyonce Featuring James Blake'
p896
tp897
a(S'House Party'
p898
S'Sam Hunt'
p899
tp900
a(S"You Don't Own Me"
p901
S'Grace Featuring G-Eazy'
p902
tp903
a(S"Like I'm Gonna Lose You"
p904
S'Meghan Trainor Featuring John Legend'
p905
tp906
a(S'My Way'
p907
S'Fetty Wap Featuring Monty'
p908
tp909
a(S'U With Me?'
p910
S'Drake'
p911
tp912
a(S'Photograph'
p913
S'Ed Sheeran'
p914
tp915
a(S'Want To Want Me'
p916
S'Jason Derulo'
p917
tp918
a(S"I'm The Plug"
p919
S'Drake & Future'
p920
tp921
a(S'Hold My Hand'
p922
S'Jess Glynne'
p923
tp924
a(S'Kick The Dust Up'
p925
S'Luke Bryan'
p926
tp927
a(S'Feedback'
p928
S'Kanye West'
p929
tp930
a(S'H.O.L.Y.'
p931
S'Florida Georgia Line'
p932
tp933
a(S'The Hills'
p934
S'The Weeknd'
p935
tp936
a(S'Wildest Dreams'
p937
S'Taylor Swift'
p938
tp939
a(S'Good For You'
p940
S'Selena Gomez Featuring A$AP Rocky'
p941
tp942
a(S'Raspberry Beret'
p943
S'Prince And The Revolution'
p944
tp945
a(S'This Could Be Us'
p946
S'Rae Sremmurd'
p947
tp948
a(S"Can't Feel My Face"
p949
S'The Weeknd'
p950
tp951
a(S'Ultralight Beam'
p952
S'Kanye West'
p953
tp954
a(S'Mary Did You Know'
p955
S'Jordan Smith'
p956
tp957
a(S'Team'
p958
S'Iggy Azalea'
p959
tp960
a(S'Sorry Not Sorry'
p961
S'Bryson Tiller'
p962
tp963
a(S'Kiss'
p964
S'Prince And The Revolution'
p965
tp966
a(S"It's You"
p967
S'Zayn'
p968
tp969
a(S'True Colors'
p970
S'Zedd & Kesha'
p971
tp972
a(S'Me Too'
p973
S'Meghan Trainor'
p974
tp975
a(S'Gonna Wanna Tonight'
p976
S'Chase Rice'
p977
tp978
a(S'Scholarships'
p979
S'Drake & Future'
p980
tp981
a(S'Thinking Out Loud'
p982
S'Ed Sheeran'
p983
tp984
a(S'New Level'
p985
S'A$AP Ferg Featuring Future'
p986
tp987
a(S'Digital Dash'
p988
S'Drake & Future'
p989
tp990
a(S'Comfortable'
p991
S'K Camp'
p992
tp993
a(S'Lay It All On Me'
p994
S'Rudimental Featuring Ed Sheeran'
p995
tp996
a(S'Faded'
p997
S'Alan Walker'
p998
tp999
a(S"If It Ain't Love"
p1000
S'Jason Derulo'
p1001
tp1002
a(S'All The Way Up'
p1003
S'Fat Joe & Remy Ma Featuring French Montana & Infared'
p1004
tp1005
a(S'Dark Times'
p1006
S'The Weeknd Featuring Ed Sheeran'
p1007
tp1008
a(S'Top Of The World'
p1009
S'Tim McGraw'
p1010
tp1011
a(S'Piece By Piece'
p1012
S'Kelly Clarkson'
p1013
tp1014
a(S'Real Life'
p1015
S'Jake Owen'
p1016
tp1017
a(S'Anything Goes'
p1018
S'Florida Georgia Line'
p1019
tp1020
a(S'Just Like Fire'
p1021
S'P!nk'
p1022
tp1023
a(S'My House'
p1024
S'Flo Rida'
p1025
tp1026
a(S'Send My Love (To Your New Lover)'
p1027
S'Adele'
p1028
tp1029
a(S'I Know What You Did Last Summer'
p1030
S'Shawn Mendes & Camila Cabello'
p1031
tp1032
a(S'I Like The Sound Of That'
p1033
S'Rascal Flatts'
p1034
tp1035
a(S"I Don't Like It, I Love It"
p1036
S'Flo Rida Featuring Robin Thicke & Verdine White'
p1037
tp1038
a(S'Cake By The Ocean'
p1039
S'DNCE'
p1040
tp1041
a(S'Get Used To Me'
p1042
S'Justin Bieber'
p1043
tp1044
a(S'Might Not'
p1045
S'Belly Featuring The Weeknd'
p1046
tp1047
a(S'One Dance'
p1048
S'Drake Featuring WizKid & Kyla'
p1049
tp1050
a(S'Diamonds Dancing'
p1051
S'Drake & Future'
p1052
tp1053
a(S'Never Be Like You'
p1054
S'Flume Featuring Kai'
p1055
tp1056
a(S'Drunk On Your Love'
p1057
S'Brett Eldredge'
p1058
tp1059
a(S'9'
p1060
S'Drake'
p1061
tp1062
a(S'Lazarus'
p1063
S'David Bowie'
p1064
tp1065
a(S'Cecilia And The Satellite'
p1066
S'Andrew McMahon In The Wilderness'
p1067
tp1068
a(S'Sugar'
p1069
S'Robin Schulz Featuring Francesco Yates'
p1070
tp1071
a(S'Focus'
p1072
S'Ariana Grande'
p1073
tp1074
a(S'Fly'
p1075
S'Maddie & Tae'
p1076
tp1077
a(S'Bad Blood'
p1078
S'Taylor Swift Featuring Kendrick Lamar'
p1079
tp1080
a(S'Heartbeat'
p1081
S'Carrie Underwood'
p1082
tp1083
a(S'Home Alone Tonight'
p1084
S'Luke Bryan Featuring Karen Fairchild'
p1085
tp1086
a(S'Alright'
p1087
S'Kendrick Lamar'
p1088
tp1089
a(S"Can't Sleep Love"
p1090
S'Pentatonix'
p1091
tp1092
a(S'6 Inch'
p1093
S'Beyonce Featuring The Weeknd'
p1094
tp1095
a(S'Unsteady'
p1096
S'X Ambassadors'
p1097
tp1098
a(S'Adventure Of A Lifetime'
p1099
S'Coldplay'
p1100
tp1101
a(S"Can't Stop The Feeling!"
p1102
S'Justin Timberlake'
p1103
tp1104
a(S'Hello'
p1105
S'Adele'
p1106
tp1107
a(S'Stitches'
p1108
S'Shawn Mendes'
p1109
tp1110
a(S'Mind Reader'
p1111
S'Dustin Lynch'
p1112
tp1113
a(S'Fight Song'
p1114
S'Rachel Platten'
p1115
tp1116
a(S'Confident'
p1117
S'Demi Lovato'
p1118
tp1119
a(S'Dibs'
p1120
S'Kelsea Ballerini'
p1121
tp1122
a(S'Roses'
p1123
S'The Chainsmokers Featuring Rozes'
p1124
tp1125
a(S'Olivia'
p1126
S'One Direction'
p1127
tp1128
a(S'Country Nation'
p1129
S'Brad Paisley'
p1130
tp1131
a(S"Don't Hurt Yourself"
p1132
S'Beyonce Featuring Jack White'
p1133
tp1134
a(S'Back Up'
p1135
S'DeJ Loaf Featuring Big Sean'
p1136
tp1137
a(S'Oui'
p1138
S'Jeremih'
p1139
tp1140
a(S"Should've Been Us"
p1141
S'Tori Kelly'
p1142
tp1143
a(S'Traveller'
p1144
S'Chris Stapleton'
p1145
tp1146
a(S'Views'
p1147
S'Drake'
p1148
tp1149
a(S'Needed Me'
p1150
S'Rihanna'
p1151
tp1152
a(S'Think Of You'
p1153
S'Chris Young Duet With Cassadee Pope'
p1154
tp1155
a(S'Life Is Worth Living'
p1156
S'Justin Bieber'
p1157
tp1158
a(S'oui'
p1159
S'Jeremih'
p1160
tp1161
a(S"Nothin' Like You"
p1162
S'Dan + Shay'
p1163
tp1164
a(S'Let Me Love You'
p1165
S'Ariana Grande Featuring Lil Wayne'
p1166
tp1167
a(S'Low Life'
p1168
S'Future Featuring The Weeknd'
p1169
tp1170
a(S'Here'
p1171
S'Alessia Cara'
p1172
tp1173
a(S'This Is What You Came For'
p1174
S'Calvin Harris Featuring Rihanna'
p1175
tp1176
a(S'All The Way Up'
p1177
S'Fat Joe & Remy Ma Featuring French Montana'
p1178
tp1179
a(S'Where Ya At'
p1180
S'Future Featuring Drake'
p1181
tp1182
a(S'Mark My Words'
p1183
S'Justin Bieber'
p1184
tp1185
a(S'Die A Happy Man'
p1186
S'Thomas Rhett'
p1187
tp1188
a(S'Perfect'
p1189
S'One Direction'
p1190
tp1191
a(S'Die A Happy Man'
p1192
S'Nelly'
p1193
tp1194
a(S'Victorious'
p1195
S'Panic! At The Disco'
p1196
tp1197
a(S'Hollow'
p1198
S'Tori Kelly'
p1199
tp1200
a(S'Acquainted'
p1201
S'The Weeknd'
p1202
tp1203
a(S'Marvin Gaye'
p1204
S'Charlie Puth Featuring Meghan Trainor'
p1205
tp1206
a(S'Lonesome Broken And Blue'
p1207
S'Adam Wakefield'
p1208
tp1209
a(S'The Christmas Song (Merry Christmas To You)'
p1210
S'Nat King Cole'
p1211
tp1212
a(S'Work From Home'
p1213
S'Fifth Harmony Featuring Ty Dolla $ign'
p1214
tp1215
a(S'Lost Boy'
p1216
S'Ruth B'
p1217
tp1218
a(S'Hymn For The Weekend'
p1219
S'Coldplay'
p1220
tp1221
a(S'Tell Your Friends'
p1222
S'The Weeknd'
p1223
tp1224
a(S'Work'
p1225
S'Rihanna Featuring Drake'
p1226
tp1227
a(S'Planes'
p1228
S'Jeremih Featuring J. Cole'
p1229
tp1230
a(S'$ave Dat Money'
p1231
S'Lil Dicky Featuring Fetty Wap & Rich Homie Quan'
p1232
tp1233
a(S'Uma Thurman'
p1234
S'Fall Out Boy'
p1235
tp1236
a(S"Ex's & Oh's"
p1237
S'Elle King'
p1238
tp1239
a(S'New Americana'
p1240
S'Halsey'
p1241
tp1242
a(S'Flex (Ooh Ooh Ooh)'
p1243
S'Rich Homie Quan'
p1244
tp1245
a(S'Big Rings'
p1246
S'Drake & Future'
p1247
tp1248
a(S'Stick Talk'
p1249
S'Future'
p1250
tp1251
a(S'679'
p1252
S'Fetty Wap Featuring Remy Boyz'
p1253
tp1254
a(S'Company'
p1255
S'Justin Bieber'
p1256
tp1257
a(S'Father Stretch My Hands Pt. 1'
p1258
S'Kanye West'
p1259
tp1260
a(S'Hallelujah'
p1261
S'Lindsey Stirling'
p1262
tp1263
a.